target datalayout = "e-m:e-p270:32:32-p271:32:32-p272:64:64-i64:64-i128:128-f80:128-n8:16:32:64-S128"
target triple = "x86_64-pc-linux-gnu"

%struct.PJconsts = type { ptr, ptr, ptr, ptr, ptr, ptr, ptr, ptr, ptr, ptr, ptr, ptr, i32, ptr, ptr, ptr, ptr, ptr, ptr, ptr, ptr, double, double, double, double, double, double, double, double, double, double, double, double, double, double, double, double, double, double, double, double, double, double, i32, i32, i32, i32, i32, i32, i32, i32, i32, i32, i32, ptr, ptr, ptr, ptr, ptr, ptr, double, double, double, double, double, double, double, double, double, double, double, i32, [7 x double], i32, ptr, ptr, double, double, i32, [4 x i8], %"class.std::shared_ptr", i8, double, i8, %"class.std::__cxx11::basic_string", %"class.std::__cxx11::basic_string", %"class.std::__cxx11::basic_string", i8, %"class.std::vector", i32, %"class.std::vector.3", i32, i8, i8, i8, ptr }
%"class.std::shared_ptr" = type { %"class.std::__shared_ptr" }
%"class.std::__shared_ptr" = type { ptr, %"class.std::__shared_count" }
%"class.std::__shared_count" = type { ptr }
%"class.std::__cxx11::basic_string" = type { %"struct.std::__cxx11::basic_string<char>::_Alloc_hider", i64, %union.anon }
%"struct.std::__cxx11::basic_string<char>::_Alloc_hider" = type { ptr }
%union.anon = type { i64, [8 x i8] }
%"class.std::vector" = type { %"struct.std::_Vector_base" }
%"struct.std::_Vector_base" = type { %"struct.std::_Vector_base<osgeo::proj::operation::GridDescription, std::allocator<osgeo::proj::operation::GridDescription>>::_Vector_impl" }
%"struct.std::_Vector_base<osgeo::proj::operation::GridDescription, std::allocator<osgeo::proj::operation::GridDescription>>::_Vector_impl" = type { %"struct.std::_Vector_base<osgeo::proj::operation::GridDescription, std::allocator<osgeo::proj::operation::GridDescription>>::_Vector_impl_data" }
%"struct.std::_Vector_base<osgeo::proj::operation::GridDescription, std::allocator<osgeo::proj::operation::GridDescription>>::_Vector_impl_data" = type { ptr, ptr, ptr }
%"class.std::vector.3" = type { %"struct.std::_Vector_base.4" }
%"struct.std::_Vector_base.4" = type { %"struct.std::_Vector_base<PJCoordOperation, std::allocator<PJCoordOperation>>::_Vector_impl" }
%"struct.std::_Vector_base<PJCoordOperation, std::allocator<PJCoordOperation>>::_Vector_impl" = type { %"struct.std::_Vector_base<PJCoordOperation, std::allocator<PJCoordOperation>>::_Vector_impl_data" }
%"struct.std::_Vector_base<PJCoordOperation, std::allocator<PJCoordOperation>>::_Vector_impl_data" = type { ptr, ptr, ptr }
%union.PROJVALUE = type { double }
%"struct.(anonymous namespace)::Set" = type { i8, i8, i8, i8, double, double, double, double }

@.str.1 = private unnamed_addr constant [4 x i8] c"v_1\00", align 1
@.str.2 = private unnamed_addr constant [5 x i8] c"dv_1\00", align 1
@.str.3 = private unnamed_addr constant [4 x i8] c"v_2\00", align 1
@.str.4 = private unnamed_addr constant [5 x i8] c"dv_2\00", align 1
@.str.5 = private unnamed_addr constant [4 x i8] c"v_3\00", align 1
@.str.6 = private unnamed_addr constant [5 x i8] c"dv_3\00", align 1
@.str.7 = private unnamed_addr constant [4 x i8] c"v_4\00", align 1
@.str.8 = private unnamed_addr constant [5 x i8] c"dv_4\00", align 1

; Function Attrs: mustprogress uwtable
define hidden noundef ptr @_Z32pj_projection_specific_setup_setP8PJconsts(ptr noundef %0) #0 {
  %2 = alloca ptr, align 8
  %3 = alloca ptr, align 8
  %4 = alloca ptr, align 8
  %5 = alloca i32, align 4
  %6 = alloca %union.PROJVALUE, align 8
  %7 = alloca %union.PROJVALUE, align 8
  %8 = alloca %union.PROJVALUE, align 8
  %9 = alloca %union.PROJVALUE, align 8
  store ptr %0, ptr %3, align 8, !tbaa !3
  %10 = load ptr, ptr %3, align 8, !tbaa !3
  %11 = getelementptr inbounds nuw %struct.PJconsts, ptr %10, i32 0, i32 18
  store ptr @_ZL11set_fwd_invR8PJ_COORDP8PJconsts, ptr %11, align 8, !tbaa !41
  %12 = load ptr, ptr %3, align 8, !tbaa !3
  %13 = getelementptr inbounds nuw %struct.PJconsts, ptr %12, i32 0, i32 17
  store ptr @_ZL11set_fwd_invR8PJ_COORDP8PJconsts, ptr %13, align 8, !tbaa !42
  call void @llvm.lifetime.start.p0(i64 8, ptr %4) #5
  %14 = call noalias ptr @calloc(i64 noundef 1, i64 noundef 40) #6
  store ptr %14, ptr %4, align 8, !tbaa !43
  %15 = load ptr, ptr %4, align 8, !tbaa !43
  %16 = load ptr, ptr %3, align 8, !tbaa !3
  %17 = getelementptr inbounds nuw %struct.PJconsts, ptr %16, i32 0, i32 11
  store ptr %15, ptr %17, align 8, !tbaa !45
  %18 = load ptr, ptr %3, align 8, !tbaa !3
  %19 = getelementptr inbounds nuw %struct.PJconsts, ptr %18, i32 0, i32 11
  %20 = load ptr, ptr %19, align 8, !tbaa !45
  %21 = icmp eq ptr null, %20
  br i1 %21, label %22, label %25

22:                                               ; preds = %1
  %23 = load ptr, ptr %3, align 8, !tbaa !3
  %24 = call noundef ptr @_Z21pj_default_destructorP8PJconstsi(ptr noundef %23, i32 noundef 4096)
  store ptr %24, ptr %2, align 8
  store i32 1, ptr %5, align 4
  br label %111

25:                                               ; preds = %1
  %26 = load ptr, ptr %3, align 8, !tbaa !3
  %27 = getelementptr inbounds nuw %struct.PJconsts, ptr %26, i32 0, i32 3
  %28 = load ptr, ptr %27, align 8, !tbaa !46
  %29 = call noundef ptr @_Z15pj_param_existsP8ARG_listPKc(ptr noundef %28, ptr noundef @.str.1)
  %30 = icmp ne ptr %29, null
  br i1 %30, label %31, label %45

31:                                               ; preds = %25
  %32 = load ptr, ptr %4, align 8, !tbaa !43
  %33 = getelementptr inbounds nuw %"struct.(anonymous namespace)::Set", ptr %32, i32 0, i32 0
  store i8 1, ptr %33, align 8, !tbaa !47
  call void @llvm.lifetime.start.p0(i64 8, ptr %6) #5
  %34 = load ptr, ptr %3, align 8, !tbaa !3
  %35 = getelementptr inbounds nuw %struct.PJconsts, ptr %34, i32 0, i32 0
  %36 = load ptr, ptr %35, align 8, !tbaa !49
  %37 = load ptr, ptr %3, align 8, !tbaa !3
  %38 = getelementptr inbounds nuw %struct.PJconsts, ptr %37, i32 0, i32 3
  %39 = load ptr, ptr %38, align 8, !tbaa !46
  %40 = call i64 @_Z8pj_paramP6pj_ctxP8ARG_listPKc(ptr noundef %36, ptr noundef %39, ptr noundef @.str.2)
  %41 = getelementptr inbounds nuw %union.PROJVALUE, ptr %6, i32 0, i32 0
  store i64 %40, ptr %41, align 8
  %42 = load double, ptr %6, align 8, !tbaa !50
  %43 = load ptr, ptr %4, align 8, !tbaa !43
  %44 = getelementptr inbounds nuw %"struct.(anonymous namespace)::Set", ptr %43, i32 0, i32 4
  store double %42, ptr %44, align 8, !tbaa !51
  call void @llvm.lifetime.end.p0(i64 8, ptr %6) #5
  br label %45

45:                                               ; preds = %31, %25
  %46 = load ptr, ptr %3, align 8, !tbaa !3
  %47 = getelementptr inbounds nuw %struct.PJconsts, ptr %46, i32 0, i32 3
  %48 = load ptr, ptr %47, align 8, !tbaa !46
  %49 = call noundef ptr @_Z15pj_param_existsP8ARG_listPKc(ptr noundef %48, ptr noundef @.str.3)
  %50 = icmp ne ptr %49, null
  br i1 %50, label %51, label %65

51:                                               ; preds = %45
  %52 = load ptr, ptr %4, align 8, !tbaa !43
  %53 = getelementptr inbounds nuw %"struct.(anonymous namespace)::Set", ptr %52, i32 0, i32 1
  store i8 1, ptr %53, align 1, !tbaa !52
  call void @llvm.lifetime.start.p0(i64 8, ptr %7) #5
  %54 = load ptr, ptr %3, align 8, !tbaa !3
  %55 = getelementptr inbounds nuw %struct.PJconsts, ptr %54, i32 0, i32 0
  %56 = load ptr, ptr %55, align 8, !tbaa !49
  %57 = load ptr, ptr %3, align 8, !tbaa !3
  %58 = getelementptr inbounds nuw %struct.PJconsts, ptr %57, i32 0, i32 3
  %59 = load ptr, ptr %58, align 8, !tbaa !46
  %60 = call i64 @_Z8pj_paramP6pj_ctxP8ARG_listPKc(ptr noundef %56, ptr noundef %59, ptr noundef @.str.4)
  %61 = getelementptr inbounds nuw %union.PROJVALUE, ptr %7, i32 0, i32 0
  store i64 %60, ptr %61, align 8
  %62 = load double, ptr %7, align 8, !tbaa !50
  %63 = load ptr, ptr %4, align 8, !tbaa !43
  %64 = getelementptr inbounds nuw %"struct.(anonymous namespace)::Set", ptr %63, i32 0, i32 5
  store double %62, ptr %64, align 8, !tbaa !53
  call void @llvm.lifetime.end.p0(i64 8, ptr %7) #5
  br label %65

65:                                               ; preds = %51, %45
  %66 = load ptr, ptr %3, align 8, !tbaa !3
  %67 = getelementptr inbounds nuw %struct.PJconsts, ptr %66, i32 0, i32 3
  %68 = load ptr, ptr %67, align 8, !tbaa !46
  %69 = call noundef ptr @_Z15pj_param_existsP8ARG_listPKc(ptr noundef %68, ptr noundef @.str.5)
  %70 = icmp ne ptr %69, null
  br i1 %70, label %71, label %85

71:                                               ; preds = %65
  %72 = load ptr, ptr %4, align 8, !tbaa !43
  %73 = getelementptr inbounds nuw %"struct.(anonymous namespace)::Set", ptr %72, i32 0, i32 2
  store i8 1, ptr %73, align 2, !tbaa !54
  call void @llvm.lifetime.start.p0(i64 8, ptr %8) #5
  %74 = load ptr, ptr %3, align 8, !tbaa !3
  %75 = getelementptr inbounds nuw %struct.PJconsts, ptr %74, i32 0, i32 0
  %76 = load ptr, ptr %75, align 8, !tbaa !49
  %77 = load ptr, ptr %3, align 8, !tbaa !3
  %78 = getelementptr inbounds nuw %struct.PJconsts, ptr %77, i32 0, i32 3
  %79 = load ptr, ptr %78, align 8, !tbaa !46
  %80 = call i64 @_Z8pj_paramP6pj_ctxP8ARG_listPKc(ptr noundef %76, ptr noundef %79, ptr noundef @.str.6)
  %81 = getelementptr inbounds nuw %union.PROJVALUE, ptr %8, i32 0, i32 0
  store i64 %80, ptr %81, align 8
  %82 = load double, ptr %8, align 8, !tbaa !50
  %83 = load ptr, ptr %4, align 8, !tbaa !43
  %84 = getelementptr inbounds nuw %"struct.(anonymous namespace)::Set", ptr %83, i32 0, i32 6
  store double %82, ptr %84, align 8, !tbaa !55
  call void @llvm.lifetime.end.p0(i64 8, ptr %8) #5
  br label %85

85:                                               ; preds = %71, %65
  %86 = load ptr, ptr %3, align 8, !tbaa !3
  %87 = getelementptr inbounds nuw %struct.PJconsts, ptr %86, i32 0, i32 3
  %88 = load ptr, ptr %87, align 8, !tbaa !46
  %89 = call noundef ptr @_Z15pj_param_existsP8ARG_listPKc(ptr noundef %88, ptr noundef @.str.7)
  %90 = icmp ne ptr %89, null
  br i1 %90, label %91, label %105

91:                                               ; preds = %85
  %92 = load ptr, ptr %4, align 8, !tbaa !43
  %93 = getelementptr inbounds nuw %"struct.(anonymous namespace)::Set", ptr %92, i32 0, i32 3
  store i8 1, ptr %93, align 1, !tbaa !56
  call void @llvm.lifetime.start.p0(i64 8, ptr %9) #5
  %94 = load ptr, ptr %3, align 8, !tbaa !3
  %95 = getelementptr inbounds nuw %struct.PJconsts, ptr %94, i32 0, i32 0
  %96 = load ptr, ptr %95, align 8, !tbaa !49
  %97 = load ptr, ptr %3, align 8, !tbaa !3
  %98 = getelementptr inbounds nuw %struct.PJconsts, ptr %97, i32 0, i32 3
  %99 = load ptr, ptr %98, align 8, !tbaa !46
  %100 = call i64 @_Z8pj_paramP6pj_ctxP8ARG_listPKc(ptr noundef %96, ptr noundef %99, ptr noundef @.str.8)
  %101 = getelementptr inbounds nuw %union.PROJVALUE, ptr %9, i32 0, i32 0
  store i64 %100, ptr %101, align 8
  %102 = load double, ptr %9, align 8, !tbaa !50
  %103 = load ptr, ptr %4, align 8, !tbaa !43
  %104 = getelementptr inbounds nuw %"struct.(anonymous namespace)::Set", ptr %103, i32 0, i32 7
  store double %102, ptr %104, align 8, !tbaa !57
  call void @llvm.lifetime.end.p0(i64 8, ptr %9) #5
  br label %105

105:                                              ; preds = %91, %85
  %106 = load ptr, ptr %3, align 8, !tbaa !3
  %107 = getelementptr inbounds nuw %struct.PJconsts, ptr %106, i32 0, i32 52
  store i32 0, ptr %107, align 4, !tbaa !39
  %108 = load ptr, ptr %3, align 8, !tbaa !3
  %109 = getelementptr inbounds nuw %struct.PJconsts, ptr %108, i32 0, i32 53
  store i32 0, ptr %109, align 8, !tbaa !40
  %110 = load ptr, ptr %3, align 8, !tbaa !3
  store ptr %110, ptr %2, align 8
  store i32 1, ptr %5, align 4
  br label %111

111:                                              ; preds = %105, %22
  call void @llvm.lifetime.end.p0(i64 8, ptr %4) #5
  %112 = load ptr, ptr %2, align 8
  ret ptr %112
}