; Function Attrs: mustprogress uwtable
define hidden noundef ptr @_Z32pj_projection_specific_setup_setP8PJconsts(ptr noundef initializes((88, 96), (136, 152)) %0) local_unnamed_addr #0 {
  %2 = getelementptr inbounds nuw i8, ptr %0, i64 144
  store ptr @_ZL11set_fwd_invR8PJ_COORDP8PJconsts, ptr %2, align 8, !tbaa !40
  %3 = getelementptr inbounds nuw i8, ptr %0, i64 136
  store ptr @_ZL11set_fwd_invR8PJ_COORDP8PJconsts, ptr %3, align 8, !tbaa !41
  %4 = tail call noalias dereferenceable_or_null(40) ptr @calloc(i64 noundef 1, i64 noundef 40) #4
  %5 = getelementptr inbounds nuw i8, ptr %0, i64 88
  store ptr %4, ptr %5, align 8, !tbaa !42
  %6 = icmp eq ptr %4, null
  br i1 %6, label %7, label %9

7:                                                ; preds = %1
  %8 = tail call noundef ptr @_Z21pj_default_destructorP8PJconstsi(ptr noundef nonnull %0, i32 noundef 4096)
  br label %48

9:                                                ; preds = %1
  %10 = getelementptr inbounds nuw i8, ptr %0, i64 24
  %11 = load ptr, ptr %10, align 8, !tbaa !43
  %12 = tail call noundef ptr @_Z15pj_param_existsP8ARG_listPKc(ptr noundef %11, ptr noundef nonnull @.str.1)
  %.not = icmp eq ptr %12, null
  br i1 %.not, label %18, label %13

13:                                               ; preds = %9
  store i8 1, ptr %4, align 8, !tbaa !44
  %14 = load ptr, ptr %0, align 8, !tbaa !46
  %15 = load ptr, ptr %10, align 8, !tbaa !43
  %16 = tail call i64 @_Z8pj_paramP6pj_ctxP8ARG_listPKc(ptr noundef %14, ptr noundef %15, ptr noundef nonnull @.str.2)
  %17 = getelementptr inbounds nuw i8, ptr %4, i64 8
  store i64 %16, ptr %17, align 8, !tbaa !47
  br label %18

18:                                               ; preds = %13, %9
  %19 = load ptr, ptr %10, align 8, !tbaa !43
  %20 = tail call noundef ptr @_Z15pj_param_existsP8ARG_listPKc(ptr noundef %19, ptr noundef nonnull @.str.3)
  %.not34 = icmp eq ptr %20, null
  br i1 %.not34, label %27, label %21

21:                                               ; preds = %18
  %22 = getelementptr inbounds nuw i8, ptr %4, i64 1
  store i8 1, ptr %22, align 1, !tbaa !48
  %23 = load ptr, ptr %0, align 8, !tbaa !46
  %24 = load ptr, ptr %10, align 8, !tbaa !43
  %25 = tail call i64 @_Z8pj_paramP6pj_ctxP8ARG_listPKc(ptr noundef %23, ptr noundef %24, ptr noundef nonnull @.str.4)
  %26 = getelementptr inbounds nuw i8, ptr %4, i64 16
  store i64 %25, ptr %26, align 8, !tbaa !49
  br label %27

27:                                               ; preds = %21, %18
  %28 = load ptr, ptr %10, align 8, !tbaa !43
  %29 = tail call noundef ptr @_Z15pj_param_existsP8ARG_listPKc(ptr noundef %28, ptr noundef nonnull @.str.5)
  %.not35 = icmp eq ptr %29, null
  br i1 %.not35, label %36, label %30

30:                                               ; preds = %27
  %31 = getelementptr inbounds nuw i8, ptr %4, i64 2
  store i8 1, ptr %31, align 2, !tbaa !50
  %32 = load ptr, ptr %0, align 8, !tbaa !46
  %33 = load ptr, ptr %10, align 8, !tbaa !43
  %34 = tail call i64 @_Z8pj_paramP6pj_ctxP8ARG_listPKc(ptr noundef %32, ptr noundef %33, ptr noundef nonnull @.str.6)
  %35 = getelementptr inbounds nuw i8, ptr %4, i64 24
  store i64 %34, ptr %35, align 8, !tbaa !51
  br label %36

36:                                               ; preds = %30, %27
  %37 = load ptr, ptr %10, align 8, !tbaa !43
  %38 = tail call noundef ptr @_Z15pj_param_existsP8ARG_listPKc(ptr noundef %37, ptr noundef nonnull @.str.7)
  %.not36 = icmp eq ptr %38, null
  br i1 %.not36, label %45, label %39

39:                                               ; preds = %36
  %40 = getelementptr inbounds nuw i8, ptr %4, i64 3
  store i8 1, ptr %40, align 1, !tbaa !52
  %41 = load ptr, ptr %0, align 8, !tbaa !46
  %42 = load ptr, ptr %10, align 8, !tbaa !43
  %43 = tail call i64 @_Z8pj_paramP6pj_ctxP8ARG_listPKc(ptr noundef %41, ptr noundef %42, ptr noundef nonnull @.str.8)
  %44 = getelementptr inbounds nuw i8, ptr %4, i64 32
  store i64 %43, ptr %44, align 8, !tbaa !53
  br label %45

45:                                               ; preds = %39, %36
  %46 = getelementptr inbounds nuw i8, ptr %0, i64 380
  store i32 0, ptr %46, align 4, !tbaa !38
  %47 = getelementptr inbounds nuw i8, ptr %0, i64 384
  store i32 0, ptr %47, align 8, !tbaa !39
  br label %48

48:                                               ; preds = %45, %7
  %.0 = phi ptr [ %8, %7 ], [ %0, %45 ]
  ret ptr %.0
}